; Function Attrs: nounwind uwtable
define dso_local void @ldbList(i32 noundef %0, i32 noundef %1) local_unnamed_addr #0 {
  %3 = load i32, ptr getelementptr inbounds nuw (i8, ptr @ldb, i64 320), align 8, !tbaa !59
  %.not10 = icmp slt i32 %3, 1
  br i1 %.not10, label %._crit_edge, label %.lr.ph

.lr.ph:                                           ; preds = %2
  %.not8 = icmp eq i32 %0, 0
  br i1 %.not8, label %ldbGetSourceLine.exit.i.us, label %.lr.ph.split

ldbGetSourceLine.exit.i.us:                       ; preds = %.lr.ph, %ldbLogSourceLine.exit.us
  %indvars.iv19 = phi i64 [ %indvars.iv.next20, %ldbLogSourceLine.exit.us ], [ 1, %.lr.ph ]
  %4 = load ptr, ptr getelementptr inbounds nuw (i8, ptr @ldb, i64 312), align 8, !tbaa !58
  %5 = getelementptr ptr, ptr %4, i64 %indvars.iv19
  %6 = getelementptr i8, ptr %5, i64 -8
  %7 = load ptr, ptr %6, align 8, !tbaa !92
  %8 = load i32, ptr getelementptr inbounds nuw (i8, ptr @ldb, i64 296), align 8, !tbaa !140
  %9 = icmp sgt i32 %8, 0
  br i1 %9, label %.lr.ph.preheader.i.i.us, label %ldbLogSourceLine.exit.us

.lr.ph.preheader.i.i.us:                          ; preds = %ldbGetSourceLine.exit.i.us
  %wide.trip.count.i.i.us = zext nneg i32 %8 to i64
  br label %.lr.ph.i.i.us

.lr.ph.i.i.us:                                    ; preds = %14, %.lr.ph.preheader.i.i.us
  %indvars.iv.i.i.us = phi i64 [ 0, %.lr.ph.preheader.i.i.us ], [ %indvars.iv.next.i.i.us, %14 ]
  %10 = getelementptr inbounds nuw [64 x i32], ptr getelementptr inbounds nuw (i8, ptr @ldb, i64 40), i64 0, i64 %indvars.iv.i.i.us
  %11 = load i32, ptr %10, align 4, !tbaa !91
  %12 = zext i32 %11 to i64
  %13 = icmp eq i64 %indvars.iv19, %12
  br i1 %13, label %ldbLogSourceLine.exit.us, label %14

14:                                               ; preds = %.lr.ph.i.i.us
  %indvars.iv.next.i.i.us = add nuw nsw i64 %indvars.iv.i.i.us, 1
  %exitcond.not.i.i.us = icmp eq i64 %indvars.iv.next.i.i.us, %wide.trip.count.i.i.us
  br i1 %exitcond.not.i.i.us, label %ldbLogSourceLine.exit.us, label %.lr.ph.i.i.us, !llvm.loop !154

ldbLogSourceLine.exit.us:                         ; preds = %.lr.ph.i.i.us, %14, %ldbGetSourceLine.exit.i.us
  %15 = phi ptr [ @.str.77, %ldbGetSourceLine.exit.i.us ], [ @.str.76, %.lr.ph.i.i.us ], [ @.str.77, %14 ]
  %16 = phi ptr [ @.str.75, %ldbGetSourceLine.exit.i.us ], [ @.str.74, %.lr.ph.i.i.us ], [ @.str.75, %14 ]
  %17 = load i32, ptr getelementptr inbounds nuw (i8, ptr @ldb, i64 324), align 4, !tbaa !24
  %18 = zext i32 %17 to i64
  %19 = icmp eq i64 %indvars.iv19, %18
  %.0.i.us = select i1 %19, ptr %16, ptr %15
  %20 = tail call ptr @sdsempty() #19
  %21 = trunc nuw nsw i64 %indvars.iv19 to i32
  %22 = tail call ptr (ptr, ptr, ...) @sdscatprintf(ptr noundef %20, ptr noundef nonnull @.str.78, ptr noundef nonnull %.0.i.us, i32 noundef %21, ptr noundef %7) #19
  %23 = load ptr, ptr getelementptr inbounds nuw (i8, ptr @ldb, i64 16), align 8, !tbaa !26
  %24 = tail call ptr @listAddNodeTail(ptr noundef %23, ptr noundef %22) #19
  %indvars.iv.next20 = add nuw nsw i64 %indvars.iv19, 1
  %25 = load i32, ptr getelementptr inbounds nuw (i8, ptr @ldb, i64 320), align 8, !tbaa !59
  %26 = sext i32 %25 to i64
  %.not.us.not = icmp slt i64 %indvars.iv19, %26
  br i1 %.not.us.not, label %ldbGetSourceLine.exit.i.us, label %._crit_edge, !llvm.loop !156

.lr.ph.split:                                     ; preds = %.lr.ph, %53
  %27 = phi i32 [ %54, %53 ], [ %3, %.lr.ph ]
  %indvars.iv = phi i64 [ %indvars.iv.next, %53 ], [ 1, %.lr.ph ]
  %28 = trunc i64 %indvars.iv to i32
  %29 = sub i32 %0, %28
  %30 = tail call i32 @llvm.abs.i32(i32 %29, i1 true)
  %31 = icmp sgt i32 %30, %1
  br i1 %31, label %53, label %ldbGetSourceLine.exit.i

ldbGetSourceLine.exit.i:                          ; preds = %.lr.ph.split
  %32 = load ptr, ptr getelementptr inbounds nuw (i8, ptr @ldb, i64 312), align 8, !tbaa !58
  %33 = getelementptr ptr, ptr %32, i64 %indvars.iv
  %34 = getelementptr i8, ptr %33, i64 -8
  %35 = load ptr, ptr %34, align 8, !tbaa !92
  %36 = load i32, ptr getelementptr inbounds nuw (i8, ptr @ldb, i64 296), align 8, !tbaa !140
  %37 = icmp sgt i32 %36, 0
  br i1 %37, label %.lr.ph.preheader.i.i, label %ldbLogSourceLine.exit

.lr.ph.preheader.i.i:                             ; preds = %ldbGetSourceLine.exit.i
  %wide.trip.count.i.i = zext nneg i32 %36 to i64
  br label %.lr.ph.i.i

38:                                               ; preds = %.lr.ph.i.i
  %indvars.iv.next.i.i = add nuw nsw i64 %indvars.iv.i.i, 1
  %exitcond.not.i.i = icmp eq i64 %indvars.iv.next.i.i, %wide.trip.count.i.i
  br i1 %exitcond.not.i.i, label %ldbLogSourceLine.exit, label %.lr.ph.i.i, !llvm.loop !154

.lr.ph.i.i:                                       ; preds = %38, %.lr.ph.preheader.i.i
  %indvars.iv.i.i = phi i64 [ 0, %.lr.ph.preheader.i.i ], [ %indvars.iv.next.i.i, %38 ]
  %39 = getelementptr inbounds nuw [64 x i32], ptr getelementptr inbounds nuw (i8, ptr @ldb, i64 40), i64 0, i64 %indvars.iv.i.i
  %40 = load i32, ptr %39, align 4, !tbaa !91
  %41 = zext i32 %40 to i64
  %42 = icmp eq i64 %indvars.iv, %41
  br i1 %42, label %ldbLogSourceLine.exit, label %38

ldbLogSourceLine.exit:                            ; preds = %38, %.lr.ph.i.i, %ldbGetSourceLine.exit.i
  %43 = phi ptr [ @.str.77, %ldbGetSourceLine.exit.i ], [ @.str.76, %.lr.ph.i.i ], [ @.str.77, %38 ]
  %44 = phi ptr [ @.str.75, %ldbGetSourceLine.exit.i ], [ @.str.74, %.lr.ph.i.i ], [ @.str.75, %38 ]
  %45 = load i32, ptr getelementptr inbounds nuw (i8, ptr @ldb, i64 324), align 4, !tbaa !24
  %46 = zext i32 %45 to i64
  %47 = icmp eq i64 %indvars.iv, %46
  %.0.i = select i1 %47, ptr %44, ptr %43
  %48 = tail call ptr @sdsempty() #19
  %49 = trunc nuw nsw i64 %indvars.iv to i32
  %50 = tail call ptr (ptr, ptr, ...) @sdscatprintf(ptr noundef %48, ptr noundef nonnull @.str.78, ptr noundef nonnull %.0.i, i32 noundef %49, ptr noundef %35) #19
  %51 = load ptr, ptr getelementptr inbounds nuw (i8, ptr @ldb, i64 16), align 8, !tbaa !26
  %52 = tail call ptr @listAddNodeTail(ptr noundef %51, ptr noundef %50) #19
  %.pre = load i32, ptr getelementptr inbounds nuw (i8, ptr @ldb, i64 320), align 8, !tbaa !59
  br label %53

53:                                               ; preds = %.lr.ph.split, %ldbLogSourceLine.exit
  %54 = phi i32 [ %27, %.lr.ph.split ], [ %.pre, %ldbLogSourceLine.exit ]
  %indvars.iv.next = add nuw nsw i64 %indvars.iv, 1
  %55 = sext i32 %54 to i64
  %.not.not = icmp slt i64 %indvars.iv, %55
  br i1 %.not.not, label %.lr.ph.split, label %._crit_edge, !llvm.loop !156

._crit_edge:                                      ; preds = %53, %ldbLogSourceLine.exit.us, %2
  ret void
}